target datalayout = "e-m:e-p270:32:32-p271:32:32-p272:64:64-i64:64-i128:128-f80:128-n8:16:32:64-S128"
target triple = "x86_64-pc-linux-gnu"

; Function Attrs: nounwind uwtable
define i32 @curl_easy_send(ptr noundef %0, ptr noundef %1, i64 noundef %2, ptr noundef %3) #4 {
  %5 = alloca i32, align 4
  %6 = alloca ptr, align 8
  %7 = alloca ptr, align 8
  %8 = alloca i64, align 8
  %9 = alloca ptr, align 8
  %10 = alloca i64, align 8
  %11 = alloca i32, align 4
  %12 = alloca ptr, align 8
  %13 = alloca i32, align 4
  store ptr %0, ptr %6, align 8, !tbaa !9
  store ptr %1, ptr %7, align 8, !tbaa !9
  store i64 %2, ptr %8, align 8, !tbaa !3
  store ptr %3, ptr %9, align 8, !tbaa !141
  call void @llvm.lifetime.start.p0(i64 8, ptr %10) #10
  store i64 0, ptr %10, align 8, !tbaa !3
  call void @llvm.lifetime.start.p0(i64 4, ptr %11) #10
  call void @llvm.lifetime.start.p0(i64 8, ptr %12) #10
  %14 = load ptr, ptr %6, align 8, !tbaa !9
  store ptr %14, ptr %12, align 8, !tbaa !21
  %15 = load ptr, ptr %12, align 8, !tbaa !21
  %16 = call zeroext i1 @Curl_is_in_callback(ptr noundef %15)
  br i1 %16, label %17, label %18

17:                                               ; preds = %4
  store i32 93, ptr %5, align 4
  store i32 1, ptr %13, align 4
  br label %26

18:                                               ; preds = %4
  %19 = load ptr, ptr %12, align 8, !tbaa !21
  %20 = load ptr, ptr %7, align 8, !tbaa !9
  %21 = load i64, ptr %8, align 8, !tbaa !3
  %22 = call i32 @Curl_senddata(ptr noundef %19, ptr noundef %20, i64 noundef %21, ptr noundef %10)
  store i32 %22, ptr %11, align 4, !tbaa !7
  %23 = load i64, ptr %10, align 8, !tbaa !3
  %24 = load ptr, ptr %9, align 8, !tbaa !141
  store i64 %23, ptr %24, align 8, !tbaa !3
  %25 = load i32, ptr %11, align 4, !tbaa !7
  store i32 %25, ptr %5, align 4
  store i32 1, ptr %13, align 4
  br label %26

26:                                               ; preds = %18, %17
  call void @llvm.lifetime.end.p0(i64 8, ptr %12) #10
  call void @llvm.lifetime.end.p0(i64 4, ptr %11) #10
  call void @llvm.lifetime.end.p0(i64 8, ptr %10) #10
  %27 = load i32, ptr %5, align 4
  ret i32 %27
}